target datalayout = "e-m:e-p270:32:32-p271:32:32-p272:64:64-i64:64-i128:128-f80:128-n8:16:32:64-S128"
target triple = "x86_64-pc-linux-gnu"

%struct.GVertex = type { %struct._GtsVertex, i32 }
%struct._GtsVertex = type { %struct._GtsPoint, ptr }
%struct._GtsPoint = type { %struct._GtsObject, double, double, double }
%struct._GtsObject = type { ptr, ptr, i32 }
%struct._GtsSegment = type { %struct._GtsObject, ptr, ptr }
%struct.v_data = type { i32, ptr, ptr }

; Function Attrs: nounwind uwtable
define internal i32 @add_edge(ptr noundef %0, ptr noundef %1) #0 {
  %3 = alloca ptr, align 8
  %4 = alloca ptr, align 8
  %5 = alloca ptr, align 8
  %6 = alloca ptr, align 8
  %7 = alloca i32, align 4
  %8 = alloca i32, align 4
  store ptr %0, ptr %3, align 8, !tbaa !25
  store ptr %1, ptr %4, align 8, !tbaa !25
  call void @llvm.lifetime.start.p0(i64 8, ptr %5) #12
  %9 = load ptr, ptr %3, align 8, !tbaa !25
  store ptr %9, ptr %5, align 8, !tbaa !60
  call void @llvm.lifetime.start.p0(i64 8, ptr %6) #12
  %10 = load ptr, ptr %4, align 8, !tbaa !25
  store ptr %10, ptr %6, align 8, !tbaa !25
  call void @llvm.lifetime.start.p0(i64 4, ptr %7) #12
  %11 = load ptr, ptr %5, align 8, !tbaa !60
  %12 = getelementptr inbounds nuw %struct._GtsSegment, ptr %11, i32 0, i32 1
  %13 = load ptr, ptr %12, align 8, !tbaa !62
  %14 = getelementptr inbounds nuw %struct.GVertex, ptr %13, i32 0, i32 1
  %15 = load i32, ptr %14, align 8, !tbaa !34
  store i32 %15, ptr %7, align 4, !tbaa !8
  call void @llvm.lifetime.start.p0(i64 4, ptr %8) #12
  %16 = load ptr, ptr %5, align 8, !tbaa !60
  %17 = getelementptr inbounds nuw %struct._GtsSegment, ptr %16, i32 0, i32 2
  %18 = load ptr, ptr %17, align 8, !tbaa !64
  %19 = getelementptr inbounds nuw %struct.GVertex, ptr %18, i32 0, i32 1
  %20 = load i32, ptr %19, align 8, !tbaa !34
  store i32 %20, ptr %8, align 4, !tbaa !8
  %21 = load i32, ptr %8, align 4, !tbaa !8
  %22 = load ptr, ptr %6, align 8, !tbaa !25
  %23 = load i32, ptr %7, align 4, !tbaa !8
  %24 = sext i32 %23 to i64
  %25 = getelementptr inbounds %struct.v_data, ptr %22, i64 %24
  %26 = getelementptr inbounds nuw %struct.v_data, ptr %25, i32 0, i32 1
  %27 = load ptr, ptr %26, align 8, !tbaa !81
  %28 = load ptr, ptr %6, align 8, !tbaa !25
  %29 = load i32, ptr %7, align 4, !tbaa !8
  %30 = sext i32 %29 to i64
  %31 = getelementptr inbounds %struct.v_data, ptr %28, i64 %30
  %32 = getelementptr inbounds nuw %struct.v_data, ptr %31, i32 0, i32 0
  %33 = load i32, ptr %32, align 8, !tbaa !82
  %34 = add nsw i32 %33, 1
  store i32 %34, ptr %32, align 8, !tbaa !82
  %35 = sext i32 %33 to i64
  %36 = getelementptr inbounds i32, ptr %27, i64 %35
  store i32 %21, ptr %36, align 4, !tbaa !8
  %37 = load i32, ptr %7, align 4, !tbaa !8
  %38 = load ptr, ptr %6, align 8, !tbaa !25
  %39 = load i32, ptr %8, align 4, !tbaa !8
  %40 = sext i32 %39 to i64
  %41 = getelementptr inbounds %struct.v_data, ptr %38, i64 %40
  %42 = getelementptr inbounds nuw %struct.v_data, ptr %41, i32 0, i32 1
  %43 = load ptr, ptr %42, align 8, !tbaa !81
  %44 = load ptr, ptr %6, align 8, !tbaa !25
  %45 = load i32, ptr %8, align 4, !tbaa !8
  %46 = sext i32 %45 to i64
  %47 = getelementptr inbounds %struct.v_data, ptr %44, i64 %46
  %48 = getelementptr inbounds nuw %struct.v_data, ptr %47, i32 0, i32 0
  %49 = load i32, ptr %48, align 8, !tbaa !82
  %50 = add nsw i32 %49, 1
  store i32 %50, ptr %48, align 8, !tbaa !82
  %51 = sext i32 %49 to i64
  %52 = getelementptr inbounds i32, ptr %43, i64 %51
  store i32 %37, ptr %52, align 4, !tbaa !8
  call void @llvm.lifetime.end.p0(i64 4, ptr %8) #12
  call void @llvm.lifetime.end.p0(i64 4, ptr %7) #12
  call void @llvm.lifetime.end.p0(i64 8, ptr %6) #12
  call void @llvm.lifetime.end.p0(i64 8, ptr %5) #12
  ret i32 0
}