; Function Attrs: mustprogress nofree norecurse nosync nounwind willreturn memory(readwrite, inaccessiblemem: none) uwtable
define internal noundef i32 @add_edge(ptr noundef readonly captures(none) %0, ptr noundef captures(none) %1) #3 {
  %3 = getelementptr inbounds nuw i8, ptr %0, i64 24
  %4 = load ptr, ptr %3, align 8, !tbaa !50
  %5 = getelementptr inbounds nuw i8, ptr %4, i64 56
  %6 = load i32, ptr %5, align 8, !tbaa !23
  %7 = getelementptr inbounds nuw i8, ptr %0, i64 32
  %8 = load ptr, ptr %7, align 8, !tbaa !52
  %9 = getelementptr inbounds nuw i8, ptr %8, i64 56
  %10 = load i32, ptr %9, align 8, !tbaa !23
  %11 = sext i32 %6 to i64
  %12 = getelementptr inbounds %struct.v_data, ptr %1, i64 %11
  %13 = getelementptr inbounds nuw i8, ptr %12, i64 8
  %14 = load ptr, ptr %13, align 8, !tbaa !66
  %15 = load i32, ptr %12, align 8, !tbaa !69
  %16 = add nsw i32 %15, 1
  store i32 %16, ptr %12, align 8, !tbaa !69
  %17 = sext i32 %15 to i64
  %18 = getelementptr inbounds i32, ptr %14, i64 %17
  store i32 %10, ptr %18, align 4, !tbaa !10
  %19 = sext i32 %10 to i64
  %20 = getelementptr inbounds %struct.v_data, ptr %1, i64 %19
  %21 = getelementptr inbounds nuw i8, ptr %20, i64 8
  %22 = load ptr, ptr %21, align 8, !tbaa !66
  %23 = load i32, ptr %20, align 8, !tbaa !69
  %24 = add nsw i32 %23, 1
  store i32 %24, ptr %20, align 8, !tbaa !69
  %25 = sext i32 %23 to i64
  %26 = getelementptr inbounds i32, ptr %22, i64 %25
  store i32 %6, ptr %26, align 4, !tbaa !10
  ret i32 0
}